target datalayout = "e-m:e-p270:32:32-p271:32:32-p272:64:64-i64:64-i128:128-f80:128-n8:16:32:64-S128"
target triple = "x86_64-pc-linux-gnu"

; Function Attrs: nounwind uwtable
define internal float @sqrf(float noundef %0) #1 {
  %2 = alloca float, align 4
  store float %0, ptr %2, align 4, !tbaa !46
  %3 = load float, ptr %2, align 4, !tbaa !46
  %4 = load float, ptr %2, align 4, !tbaa !46
  %5 = fmul nsz float %3, %4
  ret float %5
}

; Function Attrs: alwaysinline nounwind willreturn memory(none) uwtable
define internal float @av_clipf_c(float noundef %0, float noundef %1, float noundef %2) #7 {
  %4 = alloca float, align 4
  %5 = alloca float, align 4
  %6 = alloca float, align 4
  store float %0, ptr %4, align 4, !tbaa !46
  store float %1, ptr %5, align 4, !tbaa !46
  store float %2, ptr %6, align 4, !tbaa !46
  %7 = load float, ptr %4, align 4, !tbaa !46
  %8 = load float, ptr %5, align 4, !tbaa !46
  %9 = fcmp nsz ogt float %7, %8
  br i1 %9, label %10, label %12

10:                                               ; preds = %3
  %11 = load float, ptr %4, align 4, !tbaa !46
  br label %14

12:                                               ; preds = %3
  %13 = load float, ptr %5, align 4, !tbaa !46
  br label %14

14:                                               ; preds = %12, %10
  %15 = phi nsz float [ %11, %10 ], [ %13, %12 ]
  %16 = load float, ptr %6, align 4, !tbaa !46
  %17 = fcmp nsz ogt float %15, %16
  br i1 %17, label %18, label %20

18:                                               ; preds = %14
  %19 = load float, ptr %6, align 4, !tbaa !46
  br label %30

20:                                               ; preds = %14
  %21 = load float, ptr %4, align 4, !tbaa !46
  %22 = load float, ptr %5, align 4, !tbaa !46
  %23 = fcmp nsz ogt float %21, %22
  br i1 %23, label %24, label %26

24:                                               ; preds = %20
  %25 = load float, ptr %4, align 4, !tbaa !46
  br label %28

26:                                               ; preds = %20
  %27 = load float, ptr %5, align 4, !tbaa !46
  br label %28

28:                                               ; preds = %26, %24
  %29 = phi nsz float [ %25, %24 ], [ %27, %26 ]
  br label %30

30:                                               ; preds = %28, %18
  %31 = phi nsz float [ %19, %18 ], [ %29, %28 ]
  ret float %31
}

; Function Attrs: nounwind uwtable
define internal float @r_distance(float noundef %0) #1 {
  %2 = alloca float, align 4
  store float %0, ptr %2, align 4, !tbaa !46
  %3 = load float, ptr %2, align 4, !tbaa !46
  %4 = call nsz float @llvm.tan.f32(float %3)
  %5 = call nsz float @sqrf(float noundef %4)
  %6 = fadd nsz float 1.000000e+00, %5
  %7 = call nsz float @llvm.sqrt.f32(float %6)
  %8 = load float, ptr %2, align 4, !tbaa !46
  %9 = call nsz float @llvm.tan.f32(float %8)
  %10 = fdiv nsz float 1.000000e+00, %9
  %11 = call nsz float @sqrf(float noundef %10)
  %12 = fadd nsz float 1.000000e+00, %11
  %13 = call nsz float @llvm.sqrt.f32(float %12)
  %14 = call nsz float @llvm.minnum.f32(float %7, float %13)
  ret float %14
}

; Function Attrs: nounwind uwtable
define internal void @angle_transform(ptr noundef %0, ptr noundef %1, float noundef %2) #1 {
  %4 = alloca ptr, align 8
  %5 = alloca ptr, align 8
  %6 = alloca float, align 4
  %7 = alloca float, align 4
  %8 = alloca float, align 4
  %9 = alloca float, align 4
  %10 = alloca i32, align 4
  store ptr %0, ptr %4, align 8, !tbaa !51
  store ptr %1, ptr %5, align 8, !tbaa !51
  store float %2, ptr %6, align 4, !tbaa !46
  call void @llvm.lifetime.start.p0(i64 4, ptr %7) #12
  call void @llvm.lifetime.start.p0(i64 4, ptr %8) #12
  call void @llvm.lifetime.start.p0(i64 4, ptr %9) #12
  %11 = load float, ptr %6, align 4, !tbaa !46
  %12 = fcmp nsz oeq float %11, 9.000000e+01
  br i1 %12, label %13, label %14

13:                                               ; preds = %3
  store i32 1, ptr %10, align 4
  br label %75

14:                                               ; preds = %3
  %15 = load float, ptr %6, align 4, !tbaa !46
  %16 = fmul nsz float %15, 0x400921FB60000000
  %17 = fdiv nsz float %16, 1.800000e+02
  store float %17, ptr %7, align 4, !tbaa !46
  %18 = load ptr, ptr %4, align 8, !tbaa !51
  %19 = load float, ptr %18, align 4, !tbaa !46
  %20 = load ptr, ptr %5, align 8, !tbaa !51
  %21 = load float, ptr %20, align 4, !tbaa !46
  %22 = call nsz float @hypotf(float noundef %19, float noundef %21) #13
  store float %22, ptr %8, align 4, !tbaa !46
  %23 = load ptr, ptr %4, align 8, !tbaa !51
  %24 = load float, ptr %23, align 4, !tbaa !46
  %25 = load ptr, ptr %5, align 8, !tbaa !51
  %26 = load float, ptr %25, align 4, !tbaa !46
  %27 = call nsz float @llvm.atan2.f32(float %24, float %26)
  store float %27, ptr %9, align 4, !tbaa !46
  %28 = load float, ptr %9, align 4, !tbaa !46
  %29 = call nsz float @r_distance(float noundef %28)
  %30 = load float, ptr %8, align 4, !tbaa !46
  %31 = fdiv nsz float %30, %29
  store float %31, ptr %8, align 4, !tbaa !46
  %32 = load float, ptr %9, align 4, !tbaa !46
  %33 = call nsz float @llvm.fabs.f32(float %32)
  %34 = fcmp nsz ole float %33, 0x3FE921FB60000000
  br i1 %34, label %35, label %40

35:                                               ; preds = %14
  %36 = load float, ptr %7, align 4, !tbaa !46
  %37 = fdiv nsz float %36, 0x3FF921FB60000000
  %38 = load float, ptr %9, align 4, !tbaa !46
  %39 = fmul nsz float %38, %37
  store float %39, ptr %9, align 4, !tbaa !46
  br label %58

40:                                               ; preds = %14
  %41 = load float, ptr %7, align 4, !tbaa !46
  %42 = fadd nsz float 0xC01921FB60000000, %41
  %43 = load float, ptr %9, align 4, !tbaa !46
  %44 = call nsz float @llvm.fabs.f32(float %43)
  %45 = fsub nsz float 0x400921FB60000000, %44
  %46 = fmul nsz float %42, %45
  %47 = load float, ptr %9, align 4, !tbaa !46
  %48 = fcmp nsz ogt float %47, 0.000000e+00
  %49 = zext i1 %48 to i32
  %50 = load float, ptr %9, align 4, !tbaa !46
  %51 = fcmp nsz olt float %50, 0.000000e+00
  %52 = zext i1 %51 to i32
  %53 = sub nsw i32 %49, %52
  %54 = sitofp i32 %53 to float
  %55 = fmul nsz float %46, %54
  %56 = fdiv nsz float %55, 0x4012D97C80000000
  %57 = fadd nsz float 0x400921FB60000000, %56
  store float %57, ptr %9, align 4, !tbaa !46
  br label %58

58:                                               ; preds = %40, %35
  %59 = load float, ptr %9, align 4, !tbaa !46
  %60 = call nsz float @r_distance(float noundef %59)
  %61 = load float, ptr %8, align 4, !tbaa !46
  %62 = fmul nsz float %61, %60
  store float %62, ptr %8, align 4, !tbaa !46
  %63 = load float, ptr %9, align 4, !tbaa !46
  %64 = call nsz float @llvm.sin.f32(float %63)
  %65 = load float, ptr %8, align 4, !tbaa !46
  %66 = fmul nsz float %64, %65
  %67 = call nsz float @av_clipf_c(float noundef %66, float noundef -1.000000e+00, float noundef 1.000000e+00) #13
  %68 = load ptr, ptr %4, align 8, !tbaa !51
  store float %67, ptr %68, align 4, !tbaa !46
  %69 = load float, ptr %9, align 4, !tbaa !46
  %70 = call nsz float @llvm.cos.f32(float %69)
  %71 = load float, ptr %8, align 4, !tbaa !46
  %72 = fmul nsz float %70, %71
  %73 = call nsz float @av_clipf_c(float noundef %72, float noundef -1.000000e+00, float noundef 1.000000e+00) #13
  %74 = load ptr, ptr %5, align 8, !tbaa !51
  store float %73, ptr %74, align 4, !tbaa !46
  store i32 0, ptr %10, align 4
  br label %75

75:                                               ; preds = %58, %13
  call void @llvm.lifetime.end.p0(i64 4, ptr %9) #12
  call void @llvm.lifetime.end.p0(i64 4, ptr %8) #12
  call void @llvm.lifetime.end.p0(i64 4, ptr %7) #12
  %76 = load i32, ptr %10, align 4
  switch i32 %76, label %78 [
    i32 0, label %77
    i32 1, label %77
  ]

77:                                               ; preds = %75, %75
  ret void

78:                                               ; preds = %75
  unreachable
}