; Function Attrs: mustprogress nofree norecurse nosync nounwind willreturn memory(argmem: readwrite) uwtable
define internal fastcc void @angle_transform(ptr noundef nonnull captures(none) %0, ptr noundef nonnull captures(none) %1, float noundef %2) unnamed_addr #8 {
  %4 = fcmp nsz oeq float %2, 9.000000e+01
  br i1 %4, label %60, label %5

5:                                                ; preds = %3
  %6 = fmul nsz float %2, 0x400921FB60000000
  %7 = fdiv nsz float %6, 1.800000e+02
  %8 = load float, ptr %0, align 4, !tbaa !37
  %9 = load float, ptr %1, align 4, !tbaa !37
  %10 = tail call nsz float @hypotf(float noundef %8, float noundef %9) #17
  %11 = tail call nsz float @llvm.atan2.f32(float %8, float %9)
  %12 = tail call nsz float @llvm.tan.f32(float %11)
  %13 = fmul nsz float %12, %12
  %14 = fadd nsz float %13, 1.000000e+00
  %15 = tail call nsz float @llvm.sqrt.f32(float %14)
  %16 = fdiv nsz float 1.000000e+00, %12
  %17 = fmul nsz float %16, %16
  %18 = fadd nsz float %17, 1.000000e+00
  %19 = tail call nsz float @llvm.sqrt.f32(float %18)
  %20 = tail call nsz float @llvm.minnum.f32(float %15, float %19)
  %21 = fdiv nsz float %10, %20
  %22 = tail call nsz float @llvm.fabs.f32(float %11)
  %23 = fcmp nsz ugt float %22, 0x3FE921FB60000000
  br i1 %23, label %27, label %24

24:                                               ; preds = %5
  %25 = fdiv nsz float %7, 0x3FF921FB60000000
  %26 = fmul nsz float %25, %11
  br label %39

27:                                               ; preds = %5
  %28 = fadd nsz float %7, 0xC01921FB60000000
  %29 = fsub nsz float 0x400921FB60000000, %22
  %30 = fmul nsz float %28, %29
  %31 = fcmp nsz ogt float %11, 0.000000e+00
  %32 = zext i1 %31 to i32
  %33 = fcmp nsz olt float %11, 0.000000e+00
  %.neg = sext i1 %33 to i32
  %34 = add nsw i32 %.neg, %32
  %35 = sitofp i32 %34 to float
  %36 = fmul nsz float %30, %35
  %37 = fdiv nsz float %36, 0x4012D97C80000000
  %38 = fadd nsz float %37, 0x400921FB60000000
  br label %39

39:                                               ; preds = %27, %24
  %.0 = phi nsz float [ %26, %24 ], [ %38, %27 ]
  %40 = tail call nsz float @llvm.tan.f32(float %.0)
  %41 = fmul nsz float %40, %40
  %42 = fadd nsz float %41, 1.000000e+00
  %43 = tail call nsz float @llvm.sqrt.f32(float %42)
  %44 = fdiv nsz float 1.000000e+00, %40
  %45 = fmul nsz float %44, %44
  %46 = fadd nsz float %45, 1.000000e+00
  %47 = tail call nsz float @llvm.sqrt.f32(float %46)
  %48 = tail call nsz float @llvm.minnum.f32(float %43, float %47)
  %49 = fmul nsz float %21, %48
  %50 = tail call nsz float @llvm.sin.f32(float %.0)
  %51 = fmul nsz float %50, %49
  %52 = fcmp nsz ogt float %51, -1.000000e+00
  %53 = select nsz i1 %52, float %51, float -1.000000e+00
  %54 = fcmp nsz ogt float %53, 1.000000e+00
  %..i = select nsz i1 %54, float 1.000000e+00, float %53
  store float %..i, ptr %0, align 4, !tbaa !37
  %55 = tail call nsz float @llvm.cos.f32(float %.0)
  %56 = fmul nsz float %55, %49
  %57 = fcmp nsz ogt float %56, -1.000000e+00
  %58 = select nsz i1 %57, float %56, float -1.000000e+00
  %59 = fcmp nsz ogt float %58, 1.000000e+00
  %..i25 = select nsz i1 %59, float 1.000000e+00, float %58
  store float %..i25, ptr %1, align 4, !tbaa !37
  br label %60

60:                                               ; preds = %3, %39
  ret void
}